; ModuleID = '27/544.cpp'
source_filename = "27/544.cpp"
target datalayout = "e-m:e-p270:32:32-p271:32:32-p272:64:64-i64:64-f80:128-n8:16:32:64-S128"
target triple = "x86_64-pc-linux-gnu"

%"class.std::ios_base::Init" = type { i8 }
%"class.std::basic_istream" = type { i32 (...)**, i64, %"class.std::basic_ios" }
%"class.std::basic_ios" = type { %"class.std::ios_base", %"class.std::basic_ostream"*, i8, i8, %"class.std::basic_streambuf"*, %"class.std::ctype"*, %"class.std::num_put"*, %"class.std::num_get"* }
%"class.std::ios_base" = type { i32 (...)**, i64, i64, i32, i32, i32, %"struct.std::ios_base::_Callback_list"*, %"struct.std::ios_base::_Words", [8 x %"struct.std::ios_base::_Words"], i32, %"struct.std::ios_base::_Words"*, %"class.std::locale" }
%"struct.std::ios_base::_Callback_list" = type { %"struct.std::ios_base::_Callback_list"*, void (i32, %"class.std::ios_base"*, i32)*, i32, i32 }
%"struct.std::ios_base::_Words" = type { i8*, i64 }
%"class.std::locale" = type { %"class.std::locale::_Impl"* }
%"class.std::locale::_Impl" = type { i32, %"class.std::locale::facet"**, i64, %"class.std::locale::facet"**, i8** }
%"class.std::locale::facet" = type <{ i32 (...)**, i32, [4 x i8] }>
%"class.std::basic_ostream" = type { i32 (...)**, %"class.std::basic_ios" }
%"class.std::basic_streambuf" = type { i32 (...)**, i8*, i8*, i8*, i8*, i8*, i8*, %"class.std::locale" }
%"class.std::ctype" = type <{ %"class.std::locale::facet.base", [4 x i8], %struct.__locale_struct*, i8, [7 x i8], i32*, i32*, i16*, i8, [256 x i8], [256 x i8], i8, [6 x i8] }>
%"class.std::locale::facet.base" = type <{ i32 (...)**, i32 }>
%struct.__locale_struct = type { [13 x %struct.__locale_data*], i16*, i32*, i32*, [13 x i8*] }
%struct.__locale_data = type opaque
%"class.std::num_put" = type { %"class.std::locale::facet.base", [4 x i8] }
%"class.std::num_get" = type { %"class.std::locale::facet.base", [4 x i8] }

@_ZStL8__ioinit = internal global %"class.std::ios_base::Init" zeroinitializer, align 1
@__dso_handle = external hidden global i8
@_ZSt3cin = external dso_local global %"class.std::basic_istream", align 8
@.str = private unnamed_addr constant [12 x i8] c"x1=x2=%.5f\0A\00", align 1
@.str.1 = private unnamed_addr constant [17 x i8] c"x1=%.5f;x2=%.5f\0A\00", align 1
@.str.2 = private unnamed_addr constant [34 x i8] c"x1=0.00000+%.5fi;x2=0.00000%.5fi\0A\00", align 1
@.str.3 = private unnamed_addr constant [28 x i8] c"x1=%.5f+%.5fi;x2=%.5f%.5fi\0A\00", align 1
@llvm.global_ctors = appending global [1 x { i32, void ()*, i8* }] [{ i32, void ()*, i8* } { i32 65535, void ()* @_GLOBAL__sub_I_544.cpp, i8* null }]

; Function Attrs: noinline uwtable
define internal void @__cxx_global_var_init() #0 section ".text.startup" {
  call void @_ZNSt8ios_base4InitC1Ev(%"class.std::ios_base::Init"* @_ZStL8__ioinit)
  %1 = call i32 @__cxa_atexit(void (i8*)* bitcast (void (%"class.std::ios_base::Init"*)* @_ZNSt8ios_base4InitD1Ev to void (i8*)*), i8* getelementptr inbounds (%"class.std::ios_base::Init", %"class.std::ios_base::Init"* @_ZStL8__ioinit, i32 0, i32 0), i8* @__dso_handle) #3
  ret void
}

declare dso_local void @_ZNSt8ios_base4InitC1Ev(%"class.std::ios_base::Init"*) unnamed_addr #1

; Function Attrs: nounwind
declare dso_local void @_ZNSt8ios_base4InitD1Ev(%"class.std::ios_base::Init"*) unnamed_addr #2

; Function Attrs: nounwind
declare dso_local i32 @__cxa_atexit(void (i8*)*, i8*, i8*) #3

; Function Attrs: noinline norecurse uwtable
define dso_local i32 @main() #4 {
  %1 = alloca i32, align 4
  %2 = alloca i32, align 4
  %3 = alloca i32, align 4
  %4 = alloca double, align 8
  %5 = alloca double, align 8
  %6 = alloca double, align 8
  %7 = alloca double, align 8
  %8 = alloca double, align 8
  %9 = alloca double, align 8
  %10 = alloca double, align 8
  %11 = alloca double, align 8
  %12 = alloca double, align 8
  store i32 0, i32* %1, align 4
  %13 = call dereferenceable(280) %"class.std::basic_istream"* @_ZNSirsERi(%"class.std::basic_istream"* @_ZSt3cin, i32* dereferenceable(4) %2)
  store i32 1, i32* %3, align 4
  br label %14

14:                                               ; preds = %125, %0
  %15 = load i32, i32* %3, align 4
  %16 = load i32, i32* %2, align 4
  %17 = icmp sle i32 %15, %16
  br i1 %17, label %18, label %128

18:                                               ; preds = %14
  %19 = call dereferenceable(280) %"class.std::basic_istream"* @_ZNSirsERd(%"class.std::basic_istream"* @_ZSt3cin, double* dereferenceable(8) %4)
  %20 = call dereferenceable(280) %"class.std::basic_istream"* @_ZNSirsERd(%"class.std::basic_istream"* %19, double* dereferenceable(8) %5)
  %21 = call dereferenceable(280) %"class.std::basic_istream"* @_ZNSirsERd(%"class.std::basic_istream"* %20, double* dereferenceable(8) %6)
  %22 = load double, double* %5, align 8
  %23 = load double, double* %5, align 8
  %24 = fmul double %22, %23
  %25 = load double, double* %4, align 8
  %26 = fmul double 4.000000e+00, %25
  %27 = load double, double* %6, align 8
  %28 = fmul double %26, %27
  %29 = fsub double %24, %28
  %30 = fcmp oge double %29, 0.000000e+00
  br i1 %30, label %31, label %73

31:                                               ; preds = %18
  %32 = load double, double* %5, align 8
  %33 = fneg double %32
  %34 = load double, double* %5, align 8
  %35 = load double, double* %5, align 8
  %36 = fmul double %34, %35
  %37 = load double, double* %4, align 8
  %38 = fmul double 4.000000e+00, %37
  %39 = load double, double* %6, align 8
  %40 = fmul double %38, %39
  %41 = fsub double %36, %40
  %42 = call double @sqrt(double %41) #3
  %43 = fadd double %33, %42
  %44 = load double, double* %4, align 8
  %45 = fmul double 2.000000e+00, %44
  %46 = fdiv double %43, %45
  store double %46, double* %7, align 8
  %47 = load double, double* %5, align 8
  %48 = fneg double %47
  %49 = load double, double* %5, align 8
  %50 = load double, double* %5, align 8
  %51 = fmul double %49, %50
  %52 = load double, double* %4, align 8
  %53 = fmul double 4.000000e+00, %52
  %54 = load double, double* %6, align 8
  %55 = fmul double %53, %54
  %56 = fsub double %51, %55
  %57 = call double @sqrt(double %56) #3
  %58 = fsub double %48, %57
  %59 = load double, double* %4, align 8
  %60 = fmul double 2.000000e+00, %59
  %61 = fdiv double %58, %60
  store double %61, double* %8, align 8
  %62 = load double, double* %7, align 8
  %63 = load double, double* %8, align 8
  %64 = fcmp oeq double %62, %63
  br i1 %64, label %65, label %68

65:                                               ; preds = %31
  %66 = load double, double* %7, align 8
  %67 = call i32 (i8*, ...) @printf(i8* getelementptr inbounds ([12 x i8], [12 x i8]* @.str, i64 0, i64 0), double %66)
  br label %72

68:                                               ; preds = %31
  %69 = load double, double* %7, align 8
  %70 = load double, double* %8, align 8
  %71 = call i32 (i8*, ...) @printf(i8* getelementptr inbounds ([17 x i8], [17 x i8]* @.str.1, i64 0, i64 0), double %69, double %70)
  br label %72

72:                                               ; preds = %68, %65
  br label %124

73:                                               ; preds = %18
  %74 = load double, double* %5, align 8
  %75 = fneg double %74
  %76 = load double, double* %4, align 8
  %77 = fmul double 2.000000e+00, %76
  %78 = fdiv double %75, %77
  store double %78, double* %9, align 8
  %79 = load double, double* %5, align 8
  %80 = fneg double %79
  %81 = load double, double* %5, align 8
  %82 = fmul double %80, %81
  %83 = load double, double* %4, align 8
  %84 = fmul double 4.000000e+00, %83
  %85 = load double, double* %6, align 8
  %86 = fmul double %84, %85
  %87 = fadd double %82, %86
  %88 = call double @sqrt(double %87) #3
  %89 = load double, double* %4, align 8
  %90 = fmul double 2.000000e+00, %89
  %91 = fdiv double %88, %90
  store double %91, double* %10, align 8
  %92 = load double, double* %5, align 8
  %93 = fneg double %92
  %94 = load double, double* %4, align 8
  %95 = fmul double 2.000000e+00, %94
  %96 = fdiv double %93, %95
  store double %96, double* %11, align 8
  %97 = load double, double* %5, align 8
  %98 = fneg double %97
  %99 = load double, double* %5, align 8
  %100 = fmul double %98, %99
  %101 = load double, double* %4, align 8
  %102 = fmul double 4.000000e+00, %101
  %103 = load double, double* %6, align 8
  %104 = fmul double %102, %103
  %105 = fadd double %100, %104
  %106 = call double @sqrt(double %105) #3
  %107 = fneg double %106
  %108 = load double, double* %4, align 8
  %109 = fmul double 2.000000e+00, %108
  %110 = fdiv double %107, %109
  store double %110, double* %12, align 8
  %111 = load double, double* %5, align 8
  %112 = fcmp oeq double %111, 0.000000e+00
  br i1 %112, label %113, label %117

113:                                              ; preds = %73
  %114 = load double, double* %10, align 8
  %115 = load double, double* %12, align 8
  %116 = call i32 (i8*, ...) @printf(i8* getelementptr inbounds ([34 x i8], [34 x i8]* @.str.2, i64 0, i64 0), double %114, double %115)
  br label %123

117:                                              ; preds = %73
  %118 = load double, double* %9, align 8
  %119 = load double, double* %10, align 8
  %120 = load double, double* %11, align 8
  %121 = load double, double* %12, align 8
  %122 = call i32 (i8*, ...) @printf(i8* getelementptr inbounds ([28 x i8], [28 x i8]* @.str.3, i64 0, i64 0), double %118, double %119, double %120, double %121)
  br label %123

123:                                              ; preds = %117, %113
  br label %124

124:                                              ; preds = %123, %72
  br label %125

125:                                              ; preds = %124
  %126 = load i32, i32* %3, align 4
  %127 = add nsw i32 %126, 1
  store i32 %127, i32* %3, align 4
  br label %14

128:                                              ; preds = %14
  ret i32 0
}

declare dso_local dereferenceable(280) %"class.std::basic_istream"* @_ZNSirsERi(%"class.std::basic_istream"*, i32* dereferenceable(4)) #1

declare dso_local dereferenceable(280) %"class.std::basic_istream"* @_ZNSirsERd(%"class.std::basic_istream"*, double* dereferenceable(8)) #1

; Function Attrs: nounwind
declare dso_local double @sqrt(double) #2

declare dso_local i32 @printf(i8*, ...) #1

; Function Attrs: noinline uwtable
define internal void @_GLOBAL__sub_I_544.cpp() #0 section ".text.startup" {
  call void @__cxx_global_var_init()
  ret void
}


!llvm.module.flags = !{!0}
!llvm.ident = !{!1}

!0 = !{i32 1, !"wchar_size", i32 4}
!1 = !{!"clang version 10.0.0-4ubuntu1 "}
